target datalayout = "e-m:e-p270:32:32-p271:32:32-p272:64:64-i64:64-i128:128-f80:128-n8:16:32:64-S128"
target triple = "x86_64-pc-linux-gnu"

%struct.Cbs_Par_t_ = type { i32, i32, i32, i32, i32, i32, i32, i32, i32, i32, i32 }
%struct.Cbs_Man_t_ = type { %struct.Cbs_Par_t_, ptr, %struct.Cbs_Que_t_, %struct.Cbs_Que_t_, %struct.Cbs_Que_t_, ptr, ptr, ptr, ptr, i32, i32, i32, i32, i32, i32, i32, i64, i64, i64, i64 }
%struct.Cbs_Que_t_ = type { i32, i32, i32, ptr }
%struct.Vec_Int_t_ = type { i32, i32, ptr }
%struct.Gia_Obj_t_ = type <{ i64, i32 }>

; Function Attrs: inlinehint nounwind uwtable
define internal void @Vec_IntShrink(ptr noundef %0, i32 noundef %1) #5 {
  %3 = alloca ptr, align 8
  %4 = alloca i32, align 4
  store ptr %0, ptr %3, align 8, !tbaa !40
  store i32 %1, ptr %4, align 4, !tbaa !18
  %5 = load i32, ptr %4, align 4, !tbaa !18
  %6 = load ptr, ptr %3, align 8, !tbaa !40
  %7 = getelementptr inbounds nuw %struct.Vec_Int_t_, ptr %6, i32 0, i32 1
  store i32 %5, ptr %7, align 4, !tbaa !41
  ret void
}

; Function Attrs: inlinehint nounwind uwtable
define internal void @Cbs_VarUnassign(ptr noundef %0) #5 {
  %2 = alloca ptr, align 8
  store ptr %0, ptr %2, align 8, !tbaa !53
  %3 = load ptr, ptr %2, align 8, !tbaa !53
  %4 = load i64, ptr %3, align 4
  %5 = and i64 %4, -1073741825
  %6 = or i64 %5, 0
  store i64 %6, ptr %3, align 4
  %7 = load ptr, ptr %2, align 8, !tbaa !53
  %8 = load i64, ptr %7, align 4
  %9 = and i64 %8, -4611686018427387905
  %10 = or i64 %9, 0
  store i64 %10, ptr %7, align 4
  %11 = load ptr, ptr %2, align 8, !tbaa !53
  %12 = getelementptr inbounds nuw %struct.Gia_Obj_t_, ptr %11, i32 0, i32 1
  store i32 -1, ptr %12, align 4, !tbaa !76
  ret void
}

; Function Attrs: inlinehint nounwind uwtable
define internal void @Cbs_ManCancelUntil(ptr noundef %0, i32 noundef %1) #5 {
  %3 = alloca ptr, align 8
  %4 = alloca i32, align 4
  %5 = alloca ptr, align 8
  %6 = alloca i32, align 4
  store ptr %0, ptr %3, align 8, !tbaa !16
  store i32 %1, ptr %4, align 4, !tbaa !18
  call void @llvm.lifetime.start.p0(i64 8, ptr %5) #11
  call void @llvm.lifetime.start.p0(i64 4, ptr %6) #11
  %7 = load i32, ptr %4, align 4, !tbaa !18
  %8 = load ptr, ptr %3, align 8, !tbaa !16
  %9 = getelementptr inbounds nuw %struct.Cbs_Man_t_, ptr %8, i32 0, i32 2
  %10 = getelementptr inbounds nuw %struct.Cbs_Que_t_, ptr %9, i32 0, i32 0
  store i32 %7, ptr %10, align 8, !tbaa !51
  %11 = load ptr, ptr %3, align 8, !tbaa !16
  %12 = getelementptr inbounds nuw %struct.Cbs_Man_t_, ptr %11, i32 0, i32 2
  %13 = getelementptr inbounds nuw %struct.Cbs_Que_t_, ptr %12, i32 0, i32 0
  %14 = load i32, ptr %13, align 8, !tbaa !51
  store i32 %14, ptr %6, align 4, !tbaa !18
  br label %15

15:                                               ; preds = %36, %2
  %16 = load i32, ptr %6, align 4, !tbaa !18
  %17 = load ptr, ptr %3, align 8, !tbaa !16
  %18 = getelementptr inbounds nuw %struct.Cbs_Man_t_, ptr %17, i32 0, i32 2
  %19 = getelementptr inbounds nuw %struct.Cbs_Que_t_, ptr %18, i32 0, i32 1
  %20 = load i32, ptr %19, align 4, !tbaa !52
  %21 = icmp slt i32 %16, %20
  br i1 %21, label %22, label %32

22:                                               ; preds = %15
  %23 = load ptr, ptr %3, align 8, !tbaa !16
  %24 = getelementptr inbounds nuw %struct.Cbs_Man_t_, ptr %23, i32 0, i32 2
  %25 = getelementptr inbounds nuw %struct.Cbs_Que_t_, ptr %24, i32 0, i32 3
  %26 = load ptr, ptr %25, align 8, !tbaa !31
  %27 = load i32, ptr %6, align 4, !tbaa !18
  %28 = sext i32 %27 to i64
  %29 = getelementptr inbounds ptr, ptr %26, i64 %28
  %30 = load ptr, ptr %29, align 8, !tbaa !53
  store ptr %30, ptr %5, align 8, !tbaa !53
  %31 = icmp ne ptr %30, null
  br label %32

32:                                               ; preds = %22, %15
  %33 = phi i1 [ false, %15 ], [ %31, %22 ]
  br i1 %33, label %34, label %39

34:                                               ; preds = %32
  %35 = load ptr, ptr %5, align 8, !tbaa !53
  call void @Cbs_VarUnassign(ptr noundef %35)
  br label %36

36:                                               ; preds = %34
  %37 = load i32, ptr %6, align 4, !tbaa !18
  %38 = add nsw i32 %37, 1
  store i32 %38, ptr %6, align 4, !tbaa !18
  br label %15, !llvm.loop !78

39:                                               ; preds = %32
  %40 = load i32, ptr %4, align 4, !tbaa !18
  %41 = load ptr, ptr %3, align 8, !tbaa !16
  %42 = getelementptr inbounds nuw %struct.Cbs_Man_t_, ptr %41, i32 0, i32 2
  %43 = getelementptr inbounds nuw %struct.Cbs_Que_t_, ptr %42, i32 0, i32 1
  store i32 %40, ptr %43, align 4, !tbaa !52
  %44 = load ptr, ptr %3, align 8, !tbaa !16
  %45 = getelementptr inbounds nuw %struct.Cbs_Man_t_, ptr %44, i32 0, i32 6
  %46 = load ptr, ptr %45, align 8, !tbaa !37
  %47 = load i32, ptr %4, align 4, !tbaa !18
  %48 = mul nsw i32 3, %47
  call void @Vec_IntShrink(ptr noundef %46, i32 noundef %48)
  call void @llvm.lifetime.end.p0(i64 4, ptr %6) #11
  call void @llvm.lifetime.end.p0(i64 8, ptr %5) #11
  ret void
}